; Function Attrs: mustprogress uwtable
define internal fastcc noundef zeroext i1 @"_ZN4lean7compareINS_5levelEZNS_13equiv_manager13is_equiv_coreERKNS_4exprES5_E3$_0EEbRKNS_8list_refIT_EESB_OT0_"(ptr %.0.val, ptr %.0.val1) unnamed_addr #0 {
  %.not16 = icmp eq ptr %.0.val, inttoptr (i64 1 to ptr)
  br i1 %.not16, label %._crit_edge, label %.lr.ph

.lr.ph:                                           ; preds = %0, %5
  %.sroa.010.018 = phi ptr [ %7, %5 ], [ %.0.val, %0 ]
  %.sroa.06.017 = phi ptr [ %9, %5 ], [ %.0.val1, %0 ]
  %.not14 = icmp eq ptr %.sroa.06.017, inttoptr (i64 1 to ptr)
  br i1 %.not14, label %.critedge, label %1

1:                                                ; preds = %.lr.ph
  %2 = getelementptr inbounds nuw i8, ptr %.sroa.010.018, i64 8
  %3 = getelementptr inbounds nuw i8, ptr %.sroa.06.017, i64 8
  %4 = tail call noundef zeroext i1 @_ZN4leaneqERKNS_5levelES2_(ptr noundef nonnull align 8 dereferenceable(8) %2, ptr noundef nonnull align 8 dereferenceable(8) %3)
  br i1 %4, label %5, label %.critedge

5:                                                ; preds = %1
  %6 = getelementptr inbounds nuw i8, ptr %.sroa.010.018, i64 16
  %7 = load ptr, ptr %6, align 8, !tbaa !75
  %8 = getelementptr inbounds nuw i8, ptr %.sroa.06.017, i64 16
  %9 = load ptr, ptr %8, align 8, !tbaa !75
  %.not = icmp eq ptr %7, inttoptr (i64 1 to ptr)
  br i1 %.not, label %._crit_edge, label %.lr.ph, !llvm.loop !76

._crit_edge:                                      ; preds = %5, %0
  %.sroa.06.0.lcssa = phi ptr [ %.0.val1, %0 ], [ %9, %5 ]
  %10 = icmp eq ptr %.sroa.06.0.lcssa, inttoptr (i64 1 to ptr)
  br label %.critedge

.critedge:                                        ; preds = %.lr.ph, %1, %._crit_edge
  %.0 = phi i1 [ %10, %._crit_edge ], [ false, %1 ], [ false, %.lr.ph ]
  ret i1 %.0
}